target datalayout = "e-m:e-p270:32:32-p271:32:32-p272:64:64-i64:64-i128:128-f80:128-n8:16:32:64-S128"
target triple = "x86_64-pc-linux-gnu"

%struct.HDCDContext = type { ptr, [2 x %struct.hdcd_state], i32, i32, i32, i32, i32, i32, i32, ptr, i32, i32, %struct.hdcd_detection_data }
%struct.hdcd_state = type { i64, i8, i8, i8, i32, i32, i32, i32, i32, i32, i32, i32, i32, i32, i32, [16 x i32], i32, i32, i32, i32 }
%struct.hdcd_detection_data = type { i32, i32, i32, i32, i32, i32, float, i32, i32 }

@.str.8 = private unnamed_addr constant [79 x i8] c"hdcd error: Unmatched target_gain near %d: tg0: %0.1f, tg1: %0.1f, lvg: %0.1f\0A\00", align 1

; Function Attrs: nounwind uwtable
define internal void @hdcd_control(ptr noundef %0, ptr noundef %1, ptr noundef %2, ptr noundef %3) #1 {
  %5 = alloca ptr, align 8
  %6 = alloca ptr, align 8
  %7 = alloca ptr, align 8
  %8 = alloca ptr, align 8
  store ptr %0, ptr %5, align 8, !tbaa !22
  store ptr %1, ptr %6, align 8, !tbaa !33
  store ptr %2, ptr %7, align 8, !tbaa !84
  store ptr %3, ptr %8, align 8, !tbaa !84
  %9 = load ptr, ptr %5, align 8, !tbaa !22
  %10 = getelementptr inbounds nuw %struct.HDCDContext, ptr %9, i32 0, i32 3
  %11 = load i32, ptr %10, align 4, !tbaa !105
  %12 = icmp ne i32 %11, 0
  br i1 %12, label %20, label %13

13:                                               ; preds = %4
  %14 = load ptr, ptr %6, align 8, !tbaa !33
  %15 = getelementptr inbounds nuw %struct.hdcd_state, ptr %14, i32 0, i32 3
  %16 = load i8, ptr %15, align 2, !tbaa !126
  %17 = zext i8 %16 to i32
  %18 = and i32 %17, 16
  %19 = icmp ne i32 %18, 0
  br label %20

20:                                               ; preds = %13, %4
  %21 = phi i1 [ true, %4 ], [ %19, %13 ]
  %22 = zext i1 %21 to i32
  %23 = load ptr, ptr %7, align 8, !tbaa !84
  store i32 %22, ptr %23, align 4, !tbaa !32
  %24 = load ptr, ptr %6, align 8, !tbaa !33
  %25 = getelementptr inbounds nuw %struct.hdcd_state, ptr %24, i32 0, i32 3
  %26 = load i8, ptr %25, align 2, !tbaa !126
  %27 = zext i8 %26 to i32
  %28 = and i32 %27, 15
  %29 = shl i32 %28, 7
  %30 = load ptr, ptr %8, align 8, !tbaa !84
  store i32 %29, ptr %30, align 4, !tbaa !32
  ret void
}

; Function Attrs: nounwind uwtable
define internal i32 @hdcd_control_stereo(ptr noundef %0, ptr noundef %1, ptr noundef %2) #1 {
  %4 = alloca i32, align 4
  %5 = alloca ptr, align 8
  %6 = alloca ptr, align 8
  %7 = alloca ptr, align 8
  %8 = alloca [2 x i32], align 4
  %9 = alloca i32, align 4
  store ptr %0, ptr %5, align 8, !tbaa !22
  store ptr %1, ptr %6, align 8, !tbaa !84
  store ptr %2, ptr %7, align 8, !tbaa !84
  call void @llvm.lifetime.start.p0(i64 8, ptr %8) #7
  %10 = load ptr, ptr %5, align 8, !tbaa !22
  %11 = load ptr, ptr %5, align 8, !tbaa !22
  %12 = getelementptr inbounds nuw %struct.HDCDContext, ptr %11, i32 0, i32 1
  %13 = getelementptr inbounds [2 x %struct.hdcd_state], ptr %12, i64 0, i64 0
  %14 = load ptr, ptr %6, align 8, !tbaa !84
  %15 = getelementptr inbounds [2 x i32], ptr %8, i64 0, i64 0
  call void @hdcd_control(ptr noundef %10, ptr noundef %13, ptr noundef %14, ptr noundef %15)
  %16 = load ptr, ptr %5, align 8, !tbaa !22
  %17 = load ptr, ptr %5, align 8, !tbaa !22
  %18 = getelementptr inbounds nuw %struct.HDCDContext, ptr %17, i32 0, i32 1
  %19 = getelementptr inbounds [2 x %struct.hdcd_state], ptr %18, i64 0, i64 1
  %20 = load ptr, ptr %7, align 8, !tbaa !84
  %21 = getelementptr inbounds [2 x i32], ptr %8, i64 0, i64 1
  call void @hdcd_control(ptr noundef %16, ptr noundef %19, ptr noundef %20, ptr noundef %21)
  %22 = getelementptr inbounds [2 x i32], ptr %8, i64 0, i64 0
  %23 = load i32, ptr %22, align 4, !tbaa !32
  %24 = getelementptr inbounds [2 x i32], ptr %8, i64 0, i64 1
  %25 = load i32, ptr %24, align 4, !tbaa !32
  %26 = icmp eq i32 %23, %25
  br i1 %26, label %27, label %32

27:                                               ; preds = %3
  %28 = getelementptr inbounds [2 x i32], ptr %8, i64 0, i64 0
  %29 = load i32, ptr %28, align 4, !tbaa !32
  %30 = load ptr, ptr %5, align 8, !tbaa !22
  %31 = getelementptr inbounds nuw %struct.HDCDContext, ptr %30, i32 0, i32 11
  store i32 %29, ptr %31, align 4, !tbaa !114
  br label %108

32:                                               ; preds = %3
  %33 = load ptr, ptr %5, align 8, !tbaa !22
  %34 = getelementptr inbounds nuw %struct.HDCDContext, ptr %33, i32 0, i32 9
  %35 = load ptr, ptr %34, align 8, !tbaa !28
  %36 = load ptr, ptr %5, align 8, !tbaa !22
  %37 = getelementptr inbounds nuw %struct.HDCDContext, ptr %36, i32 0, i32 10
  %38 = load i32, ptr %37, align 8, !tbaa !24
  %39 = getelementptr inbounds [2 x i32], ptr %8, i64 0, i64 0
  %40 = load i32, ptr %39, align 4, !tbaa !32
  %41 = ashr i32 %40, 7
  %42 = icmp ne i32 %41, 0
  br i1 %42, label %43, label %58

43:                                               ; preds = %32
  %44 = getelementptr inbounds [2 x i32], ptr %8, i64 0, i64 0
  %45 = load i32, ptr %44, align 4, !tbaa !32
  %46 = ashr i32 %45, 7
  %47 = ashr i32 %46, 1
  %48 = sitofp i32 %47 to float
  %49 = fneg nsz float %48
  %50 = fpext nsz float %49 to double
  %51 = getelementptr inbounds [2 x i32], ptr %8, i64 0, i64 0
  %52 = load i32, ptr %51, align 4, !tbaa !32
  %53 = ashr i32 %52, 7
  %54 = and i32 %53, 1
  %55 = icmp ne i32 %54, 0
  %56 = select nsz i1 %55, double 5.000000e-01, double 0.000000e+00
  %57 = fsub nsz double %50, %56
  br label %59

58:                                               ; preds = %32
  br label %59

59:                                               ; preds = %58, %43
  %60 = phi nsz double [ %57, %43 ], [ 0.000000e+00, %58 ]
  %61 = getelementptr inbounds [2 x i32], ptr %8, i64 0, i64 1
  %62 = load i32, ptr %61, align 4, !tbaa !32
  %63 = ashr i32 %62, 7
  %64 = icmp ne i32 %63, 0
  br i1 %64, label %65, label %80

65:                                               ; preds = %59
  %66 = getelementptr inbounds [2 x i32], ptr %8, i64 0, i64 1
  %67 = load i32, ptr %66, align 4, !tbaa !32
  %68 = ashr i32 %67, 7
  %69 = ashr i32 %68, 1
  %70 = sitofp i32 %69 to float
  %71 = fneg nsz float %70
  %72 = fpext nsz float %71 to double
  %73 = getelementptr inbounds [2 x i32], ptr %8, i64 0, i64 1
  %74 = load i32, ptr %73, align 4, !tbaa !32
  %75 = ashr i32 %74, 7
  %76 = and i32 %75, 1
  %77 = icmp ne i32 %76, 0
  %78 = select nsz i1 %77, double 5.000000e-01, double 0.000000e+00
  %79 = fsub nsz double %72, %78
  br label %81

80:                                               ; preds = %59
  br label %81

81:                                               ; preds = %80, %65
  %82 = phi nsz double [ %79, %65 ], [ 0.000000e+00, %80 ]
  %83 = load ptr, ptr %5, align 8, !tbaa !22
  %84 = getelementptr inbounds nuw %struct.HDCDContext, ptr %83, i32 0, i32 11
  %85 = load i32, ptr %84, align 4, !tbaa !114
  %86 = ashr i32 %85, 7
  %87 = icmp ne i32 %86, 0
  br i1 %87, label %88, label %105

88:                                               ; preds = %81
  %89 = load ptr, ptr %5, align 8, !tbaa !22
  %90 = getelementptr inbounds nuw %struct.HDCDContext, ptr %89, i32 0, i32 11
  %91 = load i32, ptr %90, align 4, !tbaa !114
  %92 = ashr i32 %91, 7
  %93 = ashr i32 %92, 1
  %94 = sitofp i32 %93 to float
  %95 = fneg nsz float %94
  %96 = fpext nsz float %95 to double
  %97 = load ptr, ptr %5, align 8, !tbaa !22
  %98 = getelementptr inbounds nuw %struct.HDCDContext, ptr %97, i32 0, i32 11
  %99 = load i32, ptr %98, align 4, !tbaa !114
  %100 = ashr i32 %99, 7
  %101 = and i32 %100, 1
  %102 = icmp ne i32 %101, 0
  %103 = select nsz i1 %102, double 5.000000e-01, double 0.000000e+00
  %104 = fsub nsz double %96, %103
  br label %106

105:                                              ; preds = %81
  br label %106

106:                                              ; preds = %105, %88
  %107 = phi nsz double [ %104, %88 ], [ 0.000000e+00, %105 ]
  call void (ptr, i32, ptr, ...) @av_log(ptr noundef %35, i32 noundef 40, ptr noundef @.str.8, i32 noundef %38, double noundef %60, double noundef %82, double noundef %107)
  store i32 1, ptr %4, align 4
  store i32 1, ptr %9, align 4
  br label %109

108:                                              ; preds = %27
  store i32 0, ptr %4, align 4
  store i32 1, ptr %9, align 4
  br label %109

109:                                              ; preds = %108, %106
  call void @llvm.lifetime.end.p0(i64 8, ptr %8) #7
  %110 = load i32, ptr %4, align 4
  ret i32 %110
}