; Function Attrs: nounwind uwtable
define internal fastcc range(i32 0, 2) i32 @hdcd_control_stereo(ptr noundef captures(none) %0, ptr noundef nonnull writeonly captures(none) initializes((0, 4)) %1, ptr noundef nonnull writeonly captures(none) initializes((0, 4)) %2) unnamed_addr #1 {
  %4 = getelementptr i8, ptr %0, i64 284
  %.val = load i32, ptr %4, align 4, !tbaa !102
  %.not.i = icmp eq i32 %.val, 0
  %5 = getelementptr inbounds nuw i8, ptr %0, i64 18
  %6 = load i8, ptr %5, align 2, !tbaa !101
  %7 = lshr i8 %6, 4
  %.lobit.i = and i8 %7, 1
  %8 = zext nneg i8 %.lobit.i to i32
  %9 = select i1 %.not.i, i32 %8, i32 1
  store i32 %9, ptr %1, align 4, !tbaa !41
  %10 = and i8 %6, 15
  %11 = zext nneg i8 %10 to i32
  %.val21 = load i32, ptr %4, align 4, !tbaa !102
  %.not.i22 = icmp eq i32 %.val21, 0
  %12 = getelementptr inbounds nuw i8, ptr %0, i64 154
  %13 = load i8, ptr %12, align 2, !tbaa !101
  %14 = lshr i8 %13, 4
  %.lobit.i23 = and i8 %14, 1
  %15 = zext nneg i8 %.lobit.i23 to i32
  %16 = select i1 %.not.i22, i32 %15, i32 1
  store i32 %16, ptr %2, align 4, !tbaa !41
  %17 = and i8 %13, 15
  %18 = zext nneg i8 %17 to i32
  %19 = icmp eq i8 %10, %17
  br i1 %19, label %20, label %23

20:                                               ; preds = %3
  %21 = shl nuw nsw i32 %11, 7
  %22 = getelementptr inbounds nuw i8, ptr %0, i64 324
  store i32 %21, ptr %22, align 4, !tbaa !97
  br label %60

23:                                               ; preds = %3
  %24 = getelementptr inbounds nuw i8, ptr %0, i64 312
  %25 = load ptr, ptr %24, align 8, !tbaa !25
  %26 = getelementptr inbounds nuw i8, ptr %0, i64 320
  %27 = load i32, ptr %26, align 8, !tbaa !20
  %.not = icmp eq i8 %10, 0
  br i1 %.not, label %36, label %28

28:                                               ; preds = %23
  %29 = lshr i32 %11, 1
  %30 = uitofp nneg i32 %29 to float
  %31 = fneg nsz float %30
  %32 = fpext nsz float %31 to double
  %33 = and i32 %11, 1
  %.not16 = icmp eq i32 %33, 0
  %34 = select nsz i1 %.not16, double 0.000000e+00, double 5.000000e-01
  %35 = fsub nsz double %32, %34
  br label %36

36:                                               ; preds = %23, %28
  %37 = phi nsz double [ %35, %28 ], [ 0.000000e+00, %23 ]
  %.not17 = icmp eq i8 %17, 0
  br i1 %.not17, label %46, label %38

38:                                               ; preds = %36
  %39 = lshr i32 %18, 1
  %40 = uitofp nneg i32 %39 to float
  %41 = fneg nsz float %40
  %42 = fpext nsz float %41 to double
  %43 = and i32 %18, 1
  %.not18 = icmp eq i32 %43, 0
  %44 = select nsz i1 %.not18, double 0.000000e+00, double 5.000000e-01
  %45 = fsub nsz double %42, %44
  br label %46

46:                                               ; preds = %36, %38
  %47 = phi nsz double [ %45, %38 ], [ 0.000000e+00, %36 ]
  %48 = getelementptr inbounds nuw i8, ptr %0, i64 324
  %49 = load i32, ptr %48, align 4, !tbaa !97
  %.not19 = icmp ult i32 %49, 128
  br i1 %.not19, label %58, label %50

50:                                               ; preds = %46
  %51 = ashr i32 %49, 8
  %52 = sitofp i32 %51 to float
  %53 = fneg nsz float %52
  %54 = fpext nsz float %53 to double
  %55 = and i32 %49, 128
  %.not20 = icmp eq i32 %55, 0
  %56 = select nsz i1 %.not20, double 0.000000e+00, double 5.000000e-01
  %57 = fsub nsz double %54, %56
  br label %58

58:                                               ; preds = %46, %50
  %59 = phi nsz double [ %57, %50 ], [ 0.000000e+00, %46 ]
  tail call void (ptr, i32, ptr, ...) @av_log(ptr noundef %25, i32 noundef 40, ptr noundef nonnull @.str.8, i32 noundef %27, double noundef %37, double noundef %47, double noundef %59) #9
  br label %60

60:                                               ; preds = %20, %58
  %.0 = phi i32 [ 0, %20 ], [ 1, %58 ]
  ret i32 %.0
}